Certificate:
    Data:
        Version: 3 (0x2)
        Serial Number: 1 (0x1)
    Signature Algorithm: sha256WithRSAEncryption
        Issuer: C=FR, ST=Radius, L=Somewhere, O=Example Inc./emailAddress=admin@example.org, CN=Example Certificate Authority
        Validity
            Not Before: Jan 18 21:17:24 2021 GMT
            Not After : Mar 19 21:17:24 2021 GMT
        Subject: C=FR, ST=Radius, O=Example Inc., CN=Example Server Certificate/emailAddress=admin@example.org
        Subject Public Key Info:
            Public Key Algorithm: rsaEncryption
                Public-Key: (2048 bit)
                Modulus:
                    00:c0:f7:40:b4:f0:99:a2:97:61:85:8e:e8:0c:07:
                    a2:94:52:ee:7c:4f:8f:f7:a6:01:97:c9:4e:cd:7d:
                    89:3b:80:80:38:dd:18:81:24:56:54:14:2e:1c:b1:
                    84:ae:35:3e:4c:1d:38:d7:ef:db:9a:a9:06:3b:17:
                    f9:1b:d7:ba:50:fe:5e:e5:bf:fa:eb:66:e4:95:b7:
                    b4:fa:3a:aa:b6:20:92:c7:77:bc:b9:af:cd:3a:9e:
                    e4:70:66:f7:bd:62:7e:54:ee:d9:d1:41:58:ac:18:
                    42:b4:16:d8:c3:a3:44:ba:4f:39:6a:50:5d:c3:6a:
                    b7:da:a1:d7:bd:e9:03:19:b9:8d:cc:53:60:9b:82:
                    a1:60:71:e3:59:08:44:bd:ea:46:d9:d9:d7:fb:dd:
                    49:fe:cc:ef:eb:f9:9f:81:cb:c6:0c:d3:62:a2:25:
                    fd:14:1f:22:17:fc:df:9a:69:6c:a8:08:0b:dc:ec:
                    88:54:1b:f8:84:df:c7:e6:d2:48:1b:19:d1:ee:d6:
                    cd:42:82:c6:dd:26:8b:f8:cf:04:b5:c7:f4:1f:06:
                    02:da:14:18:39:be:b1:df:7d:c7:da:48:7c:a0:49:
                    a5:b8:de:42:41:e8:0a:13:e5:96:ad:a9:84:a9:34:
                    fe:67:e7:b6:c7:e7:db:94:4c:0a:6d:c2:9f:c5:ff:
                    62:d7
                Exponent: 65537 (0x10001)
        X509v3 extensions:
            X509v3 Extended Key Usage: 
                TLS Web Server Authentication
            X509v3 CRL Distribution Points: 

                Full Name:
                  URI:http://www.example.com/example_ca.crl

            X509v3 Certificate Policies: 
                Policy: 1.3.6.1.4.1.40808.1.3.2

    Signature Algorithm: sha256WithRSAEncryption
         a2:bc:e1:98:45:a4:2e:ae:6d:2b:f3:2e:09:75:57:a5:74:1b:
         6a:c7:5d:06:c8:09:38:c5:f6:85:74:96:0e:b3:ec:e0:0d:2a:
         11:4f:26:f4:14:19:32:65:5f:2b:fd:27:af:ed:98:0e:18:5b:
         f6:55:e4:00:6e:9c:e7:7c:86:f3:35:bf:75:87:76:1a:f3:9d:
         e8:41:1b:ac:f2:c6:b0:1a:25:7f:64:97:7d:99:18:7d:b0:99:
         33:6f:58:ef:a2:3f:e2:47:9e:63:02:1f:9f:dd:05:a1:c1:00:
         79:b4:1d:bb:dd:ea:74:f2:d0:09:ea:c7:9b:05:d3:23:90:72:
         c7:f7:cf:f8:d1:12:b8:c8:d3:38:3e:49:4a:dc:01:28:ff:e9:
         6b:c1:80:b3:de:04:4d:ee:63:43:5e:3c:f2:ea:8f:e6:08:43:
         59:09:42:8f:4e:50:4d:d1:b5:81:b1:a3:f1:57:57:69:02:8e:
         13:98:b8:a2:11:2a:3e:41:94:66:a8:41:c6:3e:31:2f:e5:1a:
         45:6c:87:32:bb:53:e2:88:38:ba:c0:e5:19:3a:e8:e0:6b:44:
         09:27:a9:da:1e:22:25:87:ae:f9:89:c5:cb:2b:1f:39:f0:b2:
         44:d8:b7:cd:2a:fd:53:2e:1f:20:93:da:d5:cd:7b:9d:18:71:
         45:69:2e:f8
-----BEGIN CERTIFICATE-----
MIID9DCCAtygAwIBAgIBATANBgkqhkiG9w0BAQsFADCBkzELMAkGA1UEBhMCRlIx
DzANBgNVBAgMBlJhZGl1czESMBAGA1UEBwwJU29tZXdoZXJlMRUwEwYDVQQKDAxF
eGFtcGxlIEluYy4xIDAeBgkqhkiG9w0BCQEWEWFkbWluQGV4YW1wbGUub3JnMSYw
JAYDVQQDDB1FeGFtcGxlIENlcnRpZmljYXRlIEF1dGhvcml0eTAeFw0yMTAxMTgy
MTE3MjRaFw0yMTAzMTkyMTE3MjRaMHwxCzAJBgNVBAYTAkZSMQ8wDQYDVQQIDAZS
YWRpdXMxFTATBgNVBAoMDEV4YW1wbGUgSW5jLjEjMCEGA1UEAwwaRXhhbXBsZSBT
ZXJ2ZXIgQ2VydGlmaWNhdGUxIDAeBgkqhkiG9w0BCQEWEWFkbWluQGV4YW1wbGUu
b3JnMIIBIjANBgkqhkiG9w0BAQEFAAOCAQ8AMIIBCgKCAQEAwPdAtPCZopdhhY7o
DAeilFLufE+P96YBl8lOzX2JO4CAON0YgSRWVBQuHLGErjU+TB041+/bmqkGOxf5
G9e6UP5e5b/662bklbe0+jqqtiCSx3e8ua/NOp7kcGb3vWJ+VO7Z0UFYrBhCtBbY
w6NEuk85alBdw2q32qHXvekDGbmNzFNgm4KhYHHjWQhEvepG2dnX+91J/szv6/mf
gcvGDNNioiX9FB8iF/zfmmlsqAgL3OyIVBv4hN/H5tJIGxnR7tbNQoLG3SaL+M8E
tcf0HwYC2hQYOb6x333H2kh8oEmluN5CQegKE+WWramEqTT+Z+e2x+fblEwKbcKf
xf9i1wIDAQABo2kwZzATBgNVHSUEDDAKBggrBgEFBQcDATA2BgNVHR8ELzAtMCug
KaAnhiVodHRwOi8vd3d3LmV4YW1wbGUuY29tL2V4YW1wbGVfY2EuY3JsMBgGA1Ud
IAQRMA8wDQYLKwYBBAGCvmgBAwIwDQYJKoZIhvcNAQELBQADggEBAKK84ZhFpC6u
bSvzLgl1V6V0G2rHXQbICTjF9oV0lg6z7OANKhFPJvQUGTJlXyv9J6/tmA4YW/ZV
5ABunOd8hvM1v3WHdhrznehBG6zyxrAaJX9kl32ZGH2wmTNvWO+iP+JHnmMCH5/d
BaHBAHm0Hbvd6nTy0Anqx5sF0yOQcsf3z/jRErjI0zg+SUrcASj/6WvBgLPeBE3u
Y0NePPLqj+YIQ1kJQo9OUE3RtYGxo/FXV2kCjhOYuKIRKj5BlGaoQcY+MS/lGkVs
hzK7U+KIOLrA5Rk66OBrRAknqdoeIiWHrvmJxcsrHznwskTYt80q/VMuHyCT2tXN
e50YcUVpLvg=
-----END CERTIFICATE-----
