Certificate:
    Data:
        Version: 3 (0x2)
        Serial Number: 2 (0x2)
    Signature Algorithm: sha256WithRSAEncryption
        Issuer: C=FR, ST=Radius, L=Somewhere, O=Example Inc./emailAddress=admin@example.org, CN=Example Certificate Authority
        Validity
            Not Before: Jan 18 21:17:24 2021 GMT
            Not After : Mar 19 21:17:24 2021 GMT
        Subject: C=FR, ST=Radius, O=Example Inc., CN=user@example.org/emailAddress=user@example.org
        Subject Public Key Info:
            Public Key Algorithm: rsaEncryption
                Public-Key: (2048 bit)
                Modulus:
                    00:bf:1e:a0:b1:08:3c:b2:8e:95:6b:b4:15:e5:d7:
                    bf:f4:23:c0:0f:38:a1:cc:21:2a:97:81:82:32:0d:
                    87:df:f4:d7:9f:c9:02:86:da:e6:a9:b2:85:4a:f1:
                    8d:a5:61:66:7e:9b:ec:fe:7a:83:7e:26:26:cd:3f:
                    53:6e:93:8c:4e:ea:7c:77:73:0f:fe:b7:72:99:cb:
                    41:18:68:13:30:51:4a:49:8b:74:d0:b0:e4:07:b4:
                    24:30:f4:17:04:cd:c0:bc:2e:82:20:94:d4:c4:0f:
                    67:16:46:b8:9d:28:5e:53:4c:9a:f7:56:eb:52:70:
                    9b:a6:e4:38:dc:ee:d4:64:13:86:fd:7c:c9:44:d1:
                    de:f3:dc:93:37:95:7f:b7:23:64:e5:57:36:6b:b0:
                    01:18:1d:6d:68:68:2d:56:45:e3:f8:bc:ca:3f:2a:
                    d1:05:78:8c:26:44:f7:8b:ba:25:3a:9c:a5:96:87:
                    fa:88:2c:6b:be:41:33:ee:5e:11:8a:58:31:1e:db:
                    c7:b8:90:6a:bc:54:52:b7:e5:1e:37:e4:41:5b:c9:
                    7c:62:3a:95:17:09:02:a4:f0:39:07:b8:d9:d1:00:
                    9b:26:62:bd:bb:1a:eb:e6:fa:e1:f3:cf:0b:e3:c3:
                    f7:d1:c8:b7:77:21:07:cf:d4:3e:85:86:6e:5d:41:
                    fc:45
                Exponent: 65537 (0x10001)
        X509v3 extensions:
            X509v3 Extended Key Usage: 
                TLS Web Client Authentication
            X509v3 CRL Distribution Points: 

                Full Name:
                  URI:http://www.example.com/example_ca.crl

    Signature Algorithm: sha256WithRSAEncryption
         ac:6c:d9:3a:a6:ec:b2:d3:7c:79:ea:9b:47:fc:ba:83:a3:f6:
         60:63:4a:4c:2d:5b:8b:69:a9:d8:17:21:0b:23:13:f5:2b:a8:
         7c:a2:3a:df:21:4d:59:00:6f:bd:d6:d4:a8:d5:30:5c:3f:51:
         79:26:4f:5d:0f:01:90:71:92:2e:5b:c0:57:75:38:06:f9:bb:
         92:f1:cb:14:d5:80:c2:94:b9:f6:27:4c:2f:91:d4:82:83:f9:
         a5:a9:9e:21:bd:c9:9c:fb:67:a6:af:7b:07:d2:37:f3:1e:b5:
         8a:07:f5:c5:28:7a:a4:4f:69:11:2e:7d:18:ef:ab:b0:2e:7d:
         1a:e8:b4:62:11:c1:b1:4c:67:d6:74:84:e8:69:e3:e4:30:50:
         da:e4:a6:4a:25:bc:82:ce:60:74:b1:f4:17:65:b1:0f:75:34:
         27:a9:7d:76:a7:31:56:bc:f9:85:9e:73:fb:ca:8f:ac:c6:92:
         4c:6d:bb:c2:e1:96:40:05:2b:4a:fe:4a:87:34:45:c9:e7:e5:
         69:d0:b4:8a:1e:a0:e1:bc:8a:db:d4:42:87:22:d3:8a:fa:9a:
         02:2d:52:1b:3a:9a:1c:98:8b:6e:e1:10:74:51:b5:65:ad:87:
         75:32:e2:76:02:15:80:f4:4e:33:cc:35:dd:91:2a:0e:23:ec:
         68:de:fd:a3
-----BEGIN CERTIFICATE-----
MIIDzzCCAregAwIBAgIBAjANBgkqhkiG9w0BAQsFADCBkzELMAkGA1UEBhMCRlIx
DzANBgNVBAgMBlJhZGl1czESMBAGA1UEBwwJU29tZXdoZXJlMRUwEwYDVQQKDAxF
eGFtcGxlIEluYy4xIDAeBgkqhkiG9w0BCQEWEWFkbWluQGV4YW1wbGUub3JnMSYw
JAYDVQQDDB1FeGFtcGxlIENlcnRpZmljYXRlIEF1dGhvcml0eTAeFw0yMTAxMTgy
MTE3MjRaFw0yMTAzMTkyMTE3MjRaMHExCzAJBgNVBAYTAkZSMQ8wDQYDVQQIDAZS
YWRpdXMxFTATBgNVBAoMDEV4YW1wbGUgSW5jLjEZMBcGA1UEAwwQdXNlckBleGFt
cGxlLm9yZzEfMB0GCSqGSIb3DQEJARYQdXNlckBleGFtcGxlLm9yZzCCASIwDQYJ
KoZIhvcNAQEBBQADggEPADCCAQoCggEBAL8eoLEIPLKOlWu0FeXXv/QjwA84ocwh
KpeBgjINh9/015/JAoba5qmyhUrxjaVhZn6b7P56g34mJs0/U26TjE7qfHdzD/63
cpnLQRhoEzBRSkmLdNCw5Ae0JDD0FwTNwLwugiCU1MQPZxZGuJ0oXlNMmvdW61Jw
m6bkONzu1GQThv18yUTR3vPckzeVf7cjZOVXNmuwARgdbWhoLVZF4/i8yj8q0QV4
jCZE94u6JTqcpZaH+ogsa75BM+5eEYpYMR7bx7iQarxUUrflHjfkQVvJfGI6lRcJ
AqTwOQe42dEAmyZivbsa6+b64fPPC+PD99HIt3chB8/UPoWGbl1B/EUCAwEAAaNP
ME0wEwYDVR0lBAwwCgYIKwYBBQUHAwIwNgYDVR0fBC8wLTAroCmgJ4YlaHR0cDov
L3d3dy5leGFtcGxlLmNvbS9leGFtcGxlX2NhLmNybDANBgkqhkiG9w0BAQsFAAOC
AQEArGzZOqbsstN8eeqbR/y6g6P2YGNKTC1bi2mp2BchCyMT9SuofKI63yFNWQBv
vdbUqNUwXD9ReSZPXQ8BkHGSLlvAV3U4Bvm7kvHLFNWAwpS59idML5HUgoP5pame
Ib3JnPtnpq97B9I38x61igf1xSh6pE9pES59GO+rsC59Gui0YhHBsUxn1nSE6Gnj
5DBQ2uSmSiW8gs5gdLH0F2WxD3U0J6l9dqcxVrz5hZ5z+8qPrMaSTG27wuGWQAUr
Sv5KhzRFyefladC0ih6g4byK29RChyLTivqaAi1SGzqaHJiLbuEQdFG1Za2HdTLi
dgIVgPROM8w13ZEqDiPsaN79ow==
-----END CERTIFICATE-----
