Certificate:
    Data:
        Version: 3 (0x2)
        Serial Number: 0 (0x0)
        Signature Algorithm: sha256WithRSAEncryption
        Issuer: C=AT, ST=Radius, L=Somewhere, O=Example Inc./emailAddress=admin@example.org, CN=Example Certificate Authority
        Validity
            Not Before: Apr  8 07:22:49 2022 GMT
            Not After : Sep 11 07:22:49 2038 GMT
        Subject: C=AT, ST=Radius, O=Example Inc., CN=Example Certificate Authority/emailAddress=admin@example.org
        Subject Public Key Info:
            Public Key Algorithm: rsaEncryption
                RSA Public-Key: (2048 bit)
                Modulus:
                    00:ca:26:a8:01:2a:37:b9:05:b8:06:fc:a0:d6:a8:
                    af:a0:6a:38:07:9e:0a:b0:72:17:24:77:72:ba:b0:
                    fc:ee:f0:1c:96:3d:bb:b4:dc:6b:78:f7:32:31:31:
                    d3:f7:e0:f4:42:a7:ac:f5:82:c8:3c:92:05:d7:fe:
                    bf:77:40:07:10:15:89:9c:05:a3:3c:17:04:09:9c:
                    b1:75:5e:38:ab:89:88:51:a1:ae:1a:58:90:90:79:
                    cd:49:73:86:eb:24:fb:6b:cd:70:e7:7c:c1:df:62:
                    f2:7e:e9:36:91:e3:05:e6:19:3d:b4:60:e3:e9:96:
                    8e:f5:6d:99:19:e8:5d:eb:79:cc:13:82:63:6c:44:
                    78:1e:e1:0a:95:65:30:75:ae:07:7f:a2:b2:75:fa:
                    72:52:e5:37:b6:55:bc:24:1b:05:b3:91:86:2d:20:
                    0c:dc:7a:5a:f7:b3:bb:15:6f:73:36:60:0c:8c:0f:
                    53:7e:9a:2f:4d:16:15:e8:4c:d1:a1:73:e4:3b:2e:
                    37:fc:d4:36:ed:37:66:83:a2:34:b8:de:b3:7c:4e:
                    e5:5b:2a:a0:75:39:90:b5:33:e6:20:8d:1c:4e:b8:
                    9f:23:8d:d7:64:d9:64:43:6f:9e:58:9b:2d:8a:d4:
                    6d:e5:6a:81:ad:e6:85:db:ec:d3:47:7b:86:cd:9b:
                    78:77
                Exponent: 65537 (0x10001)
        X509v3 extensions:
            X509v3 Extended Key Usage: 
                TLS Web Server Authentication
            X509v3 CRL Distribution Points: 

                Full Name:
                  URI:http://www.example.com/example_ca.crl

            X509v3 Certificate Policies: 
                Policy: 1.3.6.1.4.1.40808.1.3.2

    Signature Algorithm: sha256WithRSAEncryption
         47:6b:98:d4:23:d9:1b:45:35:83:44:1a:3e:94:d6:c3:66:71:
         a1:ad:2e:e1:18:b1:ba:0f:be:bb:87:31:b0:46:d9:a4:fe:a5:
         c9:7d:19:84:27:2e:5c:4f:58:20:97:ec:a1:12:00:b2:ff:c7:
         dc:f8:b5:d9:36:0e:b6:0d:1a:57:41:61:aa:44:09:81:dd:71:
         b5:5f:f8:10:a4:93:4e:de:9c:e8:e1:4c:75:2a:c6:47:f2:9d:
         20:df:42:c7:1f:10:1c:b9:22:1f:50:63:65:7c:de:0c:72:1a:
         9c:f8:bf:4e:88:f5:c1:21:26:f8:90:93:dd:5a:44:85:70:67:
         cd:c3:74:4d:4a:8c:55:de:5b:70:32:31:82:62:e0:7a:ad:ff:
         ff:f0:44:57:71:80:b9:4a:58:1e:3e:1c:ef:6b:f2:46:c4:e8:
         19:9e:1c:31:91:a1:f6:1d:ec:55:6d:7f:a8:61:a6:15:cf:12:
         0f:67:ae:fa:b7:19:cb:1c:37:bd:0a:e3:61:2e:a9:3a:75:a4:
         14:2c:81:97:e6:83:7a:d2:a5:81:81:f3:49:d7:b6:24:10:b0:
         6d:b2:ef:97:d0:c7:e2:c8:9b:a9:6b:34:e6:32:df:84:ff:5e:
         d5:3f:71:1b:6c:ca:5c:95:26:4c:09:1e:89:85:6c:35:88:b7:
         19:f5:a8:86
-----BEGIN CERTIFICATE-----
MIID9zCCAt+gAwIBAgIBADANBgkqhkiG9w0BAQsFADCBkzELMAkGA1UEBhMCQVQx
DzANBgNVBAgMBlJhZGl1czESMBAGA1UEBwwJU29tZXdoZXJlMRUwEwYDVQQKDAxF
eGFtcGxlIEluYy4xIDAeBgkqhkiG9w0BCQEWEWFkbWluQGV4YW1wbGUub3JnMSYw
JAYDVQQDDB1FeGFtcGxlIENlcnRpZmljYXRlIEF1dGhvcml0eTAeFw0yMjA0MDgw
NzIyNDlaFw0zODA5MTEwNzIyNDlaMH8xCzAJBgNVBAYTAkFUMQ8wDQYDVQQIDAZS
YWRpdXMxFTATBgNVBAoMDEV4YW1wbGUgSW5jLjEmMCQGA1UEAwwdRXhhbXBsZSBD
ZXJ0aWZpY2F0ZSBBdXRob3JpdHkxIDAeBgkqhkiG9w0BCQEWEWFkbWluQGV4YW1w
bGUub3JnMIIBIjANBgkqhkiG9w0BAQEFAAOCAQ8AMIIBCgKCAQEAyiaoASo3uQW4
Bvyg1qivoGo4B54KsHIXJHdyurD87vAclj27tNxrePcyMTHT9+D0Qqes9YLIPJIF
1/6/d0AHEBWJnAWjPBcECZyxdV44q4mIUaGuGliQkHnNSXOG6yT7a81w53zB32Ly
fuk2keMF5hk9tGDj6ZaO9W2ZGehd63nME4JjbER4HuEKlWUwda4Hf6KydfpyUuU3
tlW8JBsFs5GGLSAM3Hpa97O7FW9zNmAMjA9TfpovTRYV6EzRoXPkOy43/NQ27Tdm
g6I0uN6zfE7lWyqgdTmQtTPmII0cTrifI43XZNlkQ2+eWJstitRt5WqBreaF2+zT
R3uGzZt4dwIDAQABo2kwZzATBgNVHSUEDDAKBggrBgEFBQcDATA2BgNVHR8ELzAt
MCugKaAnhiVodHRwOi8vd3d3LmV4YW1wbGUuY29tL2V4YW1wbGVfY2EuY3JsMBgG
A1UdIAQRMA8wDQYLKwYBBAGCvmgBAwIwDQYJKoZIhvcNAQELBQADggEBAEdrmNQj
2RtFNYNEGj6U1sNmcaGtLuEYsboPvruHMbBG2aT+pcl9GYQnLlxPWCCX7KESALL/
x9z4tdk2DrYNGldBYapECYHdcbVf+BCkk07enOjhTHUqxkfynSDfQscfEBy5Ih9Q
Y2V83gxyGpz4v06I9cEhJviQk91aRIVwZ83DdE1KjFXeW3AyMYJi4Hqt///wRFdx
gLlKWB4+HO9r8kbE6BmeHDGRofYd7FVtf6hhphXPEg9nrvq3GcscN70K42EuqTp1
pBQsgZfmg3rSpYGB80nXtiQQsG2y75fQx+LIm6lrNOYy34T/XtU/cRtsylyVJkwJ
HomFbDWItxn1qIY=
-----END CERTIFICATE-----
