Certificate:
    Data:
        Version: 3 (0x2)
        Serial Number: 0 (0x0)
        Signature Algorithm: sha256WithRSAEncryption
        Issuer: C=AT, ST=Radius, L=Somewhere, O=Example Inc./emailAddress=admin@example.org, CN=Example Certificate Authority
        Validity
            Not Before: Feb 22 17:05:38 2020 GMT
            Not After : Jul 27 17:05:38 2036 GMT
        Subject: C=AT, ST=Radius, O=Example Inc., CN=Example Certificate Authority/emailAddress=admin@example.org
        Subject Public Key Info:
            Public Key Algorithm: rsaEncryption
                RSA Public-Key: (2048 bit)
                Modulus:
                    00:b5:ad:78:5d:89:14:28:92:55:e7:c1:e0:15:46:
                    e7:ea:da:ea:98:bb:ec:33:17:ee:d6:e3:37:1c:34:
                    ea:4e:87:a1:c9:d3:19:de:95:6f:c1:76:13:e0:b4:
                    f5:08:3e:fe:5a:76:b8:4a:e4:94:07:8b:67:4b:b5:
                    d1:97:c1:d3:e1:b1:cd:84:5b:16:aa:dc:56:5b:ff:
                    0a:e7:f3:79:a3:47:4d:5b:6d:e4:d6:21:a0:eb:e1:
                    54:83:87:1c:c5:18:de:d8:52:40:93:7e:fb:c5:df:
                    73:3c:d6:0b:a3:1d:9f:36:c7:6f:59:90:d7:5f:82:
                    80:fe:82:05:1b:1b:77:92:04:c9:25:88:8f:9c:35:
                    91:cc:86:a0:8f:8f:9b:2e:2c:62:af:f3:8a:16:75:
                    30:61:47:8d:24:ea:35:84:43:33:01:ed:d7:33:2c:
                    29:4f:2c:8d:f5:b7:b3:bd:74:4f:2e:83:2d:e1:d6:
                    3d:5e:d9:14:c3:a1:89:38:4d:29:4b:ae:39:c8:a2:
                    dd:ad:f1:42:c8:0d:6c:29:eb:70:c8:dc:e7:41:59:
                    47:1c:89:52:62:53:9c:35:58:8a:39:16:87:61:f2:
                    11:26:3a:2b:a2:19:29:c2:77:31:de:1c:74:c6:57:
                    3a:15:8b:2f:29:61:a7:45:b4:d8:70:a4:d2:ef:da:
                    5d:a1
                Exponent: 65537 (0x10001)
        X509v3 extensions:
            X509v3 Extended Key Usage: 
                TLS Web Server Authentication
            X509v3 CRL Distribution Points: 

                Full Name:
                  URI:http://www.example.com/example_ca.crl

    Signature Algorithm: sha256WithRSAEncryption
         60:49:5c:0c:1d:1a:c3:86:16:b7:d8:63:b7:b9:9b:4d:74:49:
         25:05:c0:28:f4:c6:95:ce:63:95:b7:99:41:54:7f:64:5d:9a:
         8f:f5:a7:96:09:8c:67:42:61:5d:c5:af:e4:d9:33:28:20:2a:
         1f:76:5b:a7:1f:54:47:c4:94:4f:de:bb:6d:ea:36:51:44:bf:
         90:82:b3:7c:91:28:6a:1e:dd:76:66:38:2c:0f:ed:8a:fd:b6:
         91:28:3b:59:f0:b3:42:4b:bb:fb:88:d9:d8:6f:e2:a9:79:14:
         df:0b:53:76:be:23:c1:0e:96:85:aa:d9:3f:d6:60:7a:a5:a9:
         5a:1d:17:05:7e:84:7a:36:0b:a0:eb:96:8d:75:08:ab:ea:e2:
         9b:4c:dc:92:05:b0:bc:2a:c0:ff:21:89:02:c2:cd:07:ee:85:
         55:5b:cf:bd:bc:d7:b1:8a:54:51:5a:58:f6:77:e5:76:85:26:
         fd:dd:e8:ec:aa:45:c8:cf:d1:10:16:68:97:e4:e7:06:e3:22:
         9c:4d:f5:85:bb:37:26:d4:fc:47:af:26:03:f3:e1:17:cc:20:
         33:c1:c4:e2:b3:b7:1e:d3:0a:81:85:ff:e6:79:70:07:a7:8b:
         3c:1e:9e:1b:e8:f5:a1:3e:69:c5:90:f4:7f:49:a7:19:93:fa:
         65:fc:0e:43
-----BEGIN CERTIFICATE-----
MIID3TCCAsWgAwIBAgIBADANBgkqhkiG9w0BAQsFADCBkzELMAkGA1UEBhMCQVQx
DzANBgNVBAgMBlJhZGl1czESMBAGA1UEBwwJU29tZXdoZXJlMRUwEwYDVQQKDAxF
eGFtcGxlIEluYy4xIDAeBgkqhkiG9w0BCQEWEWFkbWluQGV4YW1wbGUub3JnMSYw
JAYDVQQDDB1FeGFtcGxlIENlcnRpZmljYXRlIEF1dGhvcml0eTAeFw0yMDAyMjIx
NzA1MzhaFw0zNjA3MjcxNzA1MzhaMH8xCzAJBgNVBAYTAkFUMQ8wDQYDVQQIDAZS
YWRpdXMxFTATBgNVBAoMDEV4YW1wbGUgSW5jLjEmMCQGA1UEAwwdRXhhbXBsZSBD
ZXJ0aWZpY2F0ZSBBdXRob3JpdHkxIDAeBgkqhkiG9w0BCQEWEWFkbWluQGV4YW1w
bGUub3JnMIIBIjANBgkqhkiG9w0BAQEFAAOCAQ8AMIIBCgKCAQEAta14XYkUKJJV
58HgFUbn6trqmLvsMxfu1uM3HDTqToehydMZ3pVvwXYT4LT1CD7+Wna4SuSUB4tn
S7XRl8HT4bHNhFsWqtxWW/8K5/N5o0dNW23k1iGg6+FUg4ccxRje2FJAk377xd9z
PNYLox2fNsdvWZDXX4KA/oIFGxt3kgTJJYiPnDWRzIagj4+bLixir/OKFnUwYUeN
JOo1hEMzAe3XMywpTyyN9bezvXRPLoMt4dY9XtkUw6GJOE0pS645yKLdrfFCyA1s
KetwyNznQVlHHIlSYlOcNViKORaHYfIRJjorohkpwncx3hx0xlc6FYsvKWGnRbTY
cKTS79pdoQIDAQABo08wTTATBgNVHSUEDDAKBggrBgEFBQcDATA2BgNVHR8ELzAt
MCugKaAnhiVodHRwOi8vd3d3LmV4YW1wbGUuY29tL2V4YW1wbGVfY2EuY3JsMA0G
CSqGSIb3DQEBCwUAA4IBAQBgSVwMHRrDhha32GO3uZtNdEklBcAo9MaVzmOVt5lB
VH9kXZqP9aeWCYxnQmFdxa/k2TMoICofdlunH1RHxJRP3rtt6jZRRL+QgrN8kShq
Ht12ZjgsD+2K/baRKDtZ8LNCS7v7iNnYb+KpeRTfC1N2viPBDpaFqtk/1mB6pala
HRcFfoR6Ngug65aNdQir6uKbTNySBbC8KsD/IYkCws0H7oVVW8+9vNexilRRWlj2
d+V2hSb93ejsqkXIz9EQFmiX5OcG4yKcTfWFuzcm1PxHryYD8+EXzCAzwcTis7ce
0wqBhf/meXAHp4s8Hp4b6PWhPmnFkPR/SacZk/pl/A5D
-----END CERTIFICATE-----
